target datalayout = "e-m:e-p270:32:32-p271:32:32-p272:64:64-i64:64-i128:128-f80:128-n8:16:32:64-S128"
target triple = "x86_64-pc-linux-gnu"

@.str.120 = private unnamed_addr constant [10 x i8] c"/dev/null\00", align 1
@.str.121 = private unnamed_addr constant [48 x i8] c"failed to open /dev/null for missing stdio pipe\00", align 1

; Function Attrs: mustprogress uwtable
define internal void @_ZL13EnsureStdPipei(i32 noundef %0) #6 {
  %2 = alloca i32, align 4
  %3 = alloca i32, align 4
  store i32 %0, ptr %2, align 4, !tbaa !46
  %4 = load i32, ptr %2, align 4, !tbaa !46
  %5 = call i32 (i32, i32, ...) @fcntl(i32 noundef %4, i32 noundef 1)
  %6 = icmp ne i32 %5, -1
  br i1 %6, label %11, label %7

7:                                                ; preds = %1
  %8 = call ptr @__errno_location() #29
  %9 = load i32, ptr %8, align 4, !tbaa !46
  %10 = icmp ne i32 %9, 9
  br i1 %10, label %11, label %12

11:                                               ; preds = %7, %1
  br label %31

12:                                               ; preds = %7
  call void @llvm.lifetime.start.p0(i64 4, ptr %3) #3
  %13 = load i32, ptr %2, align 4, !tbaa !46
  %14 = icmp eq i32 %13, 0
  %15 = select i1 %14, i32 0, i32 1
  %16 = call i32 (ptr, i32, ...) @open(ptr noundef @.str.120, i32 noundef %15)
  store i32 %16, ptr %3, align 4, !tbaa !46
  %17 = load i32, ptr %3, align 4, !tbaa !46
  %18 = icmp eq i32 %17, -1
  br i1 %18, label %19, label %20

19:                                               ; preds = %12
  call void @perror(ptr noundef @.str.121)
  call void @abort() #25
  unreachable

20:                                               ; preds = %12
  %21 = load i32, ptr %3, align 4, !tbaa !46
  %22 = load i32, ptr %2, align 4, !tbaa !46
  %23 = icmp ne i32 %21, %22
  br i1 %23, label %24, label %30

24:                                               ; preds = %20
  %25 = load i32, ptr %3, align 4, !tbaa !46
  %26 = load i32, ptr %2, align 4, !tbaa !46
  %27 = call i32 @dup2(i32 noundef %25, i32 noundef %26) #3
  %28 = load i32, ptr %3, align 4, !tbaa !46
  %29 = call i32 @close(i32 noundef %28)
  br label %30

30:                                               ; preds = %24, %20
  call void @llvm.lifetime.end.p0(i64 4, ptr %3) #3
  br label %31

31:                                               ; preds = %30, %11
  ret void
}