; Function Attrs: mustprogress uwtable
define internal fastcc void @_ZL13EnsureStdPipei(i32 noundef range(i32 0, 3) %0) unnamed_addr #3 {
  %2 = tail call i32 (i32, i32, ...) @fcntl(i32 noundef %0, i32 noundef 1)
  %.not = icmp eq i32 %2, -1
  br i1 %.not, label %3, label %16

3:                                                ; preds = %1
  %4 = tail call ptr @__errno_location() #43
  %5 = load i32, ptr %4, align 4, !tbaa !158
  %.not9 = icmp eq i32 %5, 9
  br i1 %.not9, label %6, label %16

6:                                                ; preds = %3
  %7 = icmp ne i32 %0, 0
  %8 = zext i1 %7 to i32
  %9 = tail call i32 (ptr, i32, ...) @open(ptr noundef nonnull @.str.120, i32 noundef %8)
  %10 = icmp eq i32 %9, -1
  br i1 %10, label %11, label %12

11:                                               ; preds = %6
  tail call void @perror(ptr noundef nonnull @.str.121) #44
  tail call void @abort() #41
  unreachable

12:                                               ; preds = %6
  %.not10 = icmp eq i32 %9, %0
  br i1 %.not10, label %16, label %13

13:                                               ; preds = %12
  %14 = tail call i32 @dup2(i32 noundef %9, i32 noundef %0) #37
  %15 = tail call i32 @close(i32 noundef %9)
  br label %16

16:                                               ; preds = %12, %13, %1, %3
  ret void
}